; Function Attrs: mustprogress nofree norecurse nosync nounwind willreturn memory(readwrite, inaccessiblemem: none) uwtable
define hidden void @_ZN9Assembler4andwE8RegisterS0_(ptr nocapture noundef nonnull readonly align 8 dereferenceable(40) %0, i32 %1, i32 %2) local_unnamed_addr #8 align 2 {
  %4 = sext i32 %1 to i64
  %5 = getelementptr inbounds %"class.Register::RegisterImpl", ptr getelementptr inbounds (i8, ptr @all_RegisterImpls, i64 1), i64 %4
  %6 = ptrtoint ptr %5 to i64
  %7 = trunc i64 %6 to i32
  %8 = sub i32 %7, ptrtoint (ptr getelementptr inbounds (i8, ptr @all_RegisterImpls, i64 1) to i32)
  %9 = sext i32 %2 to i64
  %10 = getelementptr inbounds %"class.Register::RegisterImpl", ptr getelementptr inbounds (i8, ptr @all_RegisterImpls, i64 1), i64 %9
  %11 = ptrtoint ptr %10 to i64
  %12 = trunc i64 %11 to i32
  %13 = sub i32 %12, ptrtoint (ptr getelementptr inbounds (i8, ptr @all_RegisterImpls, i64 1) to i32)
  %14 = icmp sgt i32 %13, 15
  %15 = icmp sgt i32 %8, 15
  %or.cond.i.i = or i1 %15, %14
  br i1 %or.cond.i.i, label %16, label %33

16:                                               ; preds = %3
  %17 = shl i32 %8, 2
  %spec.select.i.i.i.i = and i32 %17, 64
  %18 = lshr i32 %8, 1
  %19 = and i32 %18, 4
  %20 = and i32 %13, 16
  %21 = lshr i32 %13, 3
  %22 = and i32 %21, 1
  %.1.i10.i.i.i = or disjoint i32 %spec.select.i.i.i.i, %19
  %.1.i.i.i.i = or disjoint i32 %.1.i10.i.i.i, %20
  %23 = or disjoint i32 %.1.i.i.i.i, %22
  %24 = getelementptr inbounds i8, ptr %0, i64 8
  %25 = load ptr, ptr %24, align 8
  %26 = getelementptr inbounds i8, ptr %25, i64 16
  %27 = load ptr, ptr %26, align 8
  %28 = getelementptr inbounds i8, ptr %27, i64 1
  store i8 -43, ptr %27, align 1
  store ptr %28, ptr %26, align 8
  %29 = load ptr, ptr %24, align 8
  %.0.i.i2.i.i.i.i = trunc nuw nsw i32 %23 to i8
  %30 = getelementptr inbounds i8, ptr %29, i64 16
  %31 = load ptr, ptr %30, align 8
  %32 = getelementptr inbounds i8, ptr %31, i64 1
  store i8 %.0.i.i2.i.i.i.i, ptr %31, align 1
  store ptr %32, ptr %30, align 8
  br label %_ZN9Assembler17prefix_and_encodeEiib.exit

33:                                               ; preds = %3
  %34 = icmp slt i32 %8, 8
  br i1 %34, label %35, label %43

35:                                               ; preds = %33
  %36 = icmp sgt i32 %13, 7
  br i1 %36, label %37, label %_ZN9Assembler17prefix_and_encodeEiib.exit

37:                                               ; preds = %35
  %38 = getelementptr inbounds i8, ptr %0, i64 8
  %39 = load ptr, ptr %38, align 8
  %40 = getelementptr inbounds i8, ptr %39, i64 16
  %41 = load ptr, ptr %40, align 8
  %42 = getelementptr inbounds i8, ptr %41, i64 1
  store i8 65, ptr %41, align 1
  store ptr %42, ptr %40, align 8
  br label %_ZN9Assembler17prefix_and_encodeEiib.exit

43:                                               ; preds = %33
  %44 = icmp slt i32 %13, 8
  %45 = getelementptr inbounds i8, ptr %0, i64 8
  %46 = load ptr, ptr %45, align 8
  %47 = getelementptr inbounds i8, ptr %46, i64 16
  %48 = load ptr, ptr %47, align 8
  %49 = getelementptr inbounds i8, ptr %48, i64 1
  %spec.select.i = select i1 %44, i8 68, i8 69
  store i8 %spec.select.i, ptr %48, align 1
  store ptr %49, ptr %47, align 8
  br label %_ZN9Assembler17prefix_and_encodeEiib.exit

_ZN9Assembler17prefix_and_encodeEiib.exit:        ; preds = %35, %37, %43, %16
  %50 = shl i32 %8, 3
  %51 = and i32 %13, 7
  %52 = or disjoint i32 %51, %50
  %53 = getelementptr inbounds i8, ptr %0, i64 8
  %54 = load ptr, ptr %53, align 8
  %55 = trunc i32 %52 to i8
  %.0.i2.i.i = or i8 %55, -64
  %56 = getelementptr inbounds i8, ptr %54, i64 16
  %57 = load ptr, ptr %56, align 8
  %58 = getelementptr inbounds i8, ptr %57, i64 1
  store i8 35, ptr %57, align 1
  %59 = getelementptr inbounds i8, ptr %57, i64 2
  store i8 %.0.i2.i.i, ptr %58, align 1
  store ptr %59, ptr %56, align 8
  ret void
}